target datalayout = "e-m:e-p270:32:32-p271:32:32-p272:64:64-i64:64-i128:128-f80:128-n8:16:32:64-S128"
target triple = "x86_64-pc-linux-gnu"

%class.G1RedirtyCardsLocalQueueSet = type { %class.PtrQueueSet, ptr, %struct.BufferNodeList, %"class.G1RedirtyCardsLocalQueueSet::Queue" }
%class.PtrQueueSet = type { ptr, ptr }
%struct.BufferNodeList = type { ptr, ptr, i64 }
%"class.G1RedirtyCardsLocalQueueSet::Queue" = type { %class.PtrQueue }
%class.PtrQueue = type { i64, ptr }

@_ZTV27G1RedirtyCardsLocalQueueSet = hidden unnamed_addr constant { [3 x ptr] } { [3 x ptr] [ptr null, ptr null, ptr @_ZN27G1RedirtyCardsLocalQueueSet24enqueue_completed_bufferEP10BufferNode] }, align 8
@_ZN27G1RedirtyCardsLocalQueueSet5QueueC1EPS_ = hidden unnamed_addr alias void (ptr, ptr), ptr @_ZN27G1RedirtyCardsLocalQueueSet5QueueC2EPS_

; Function Attrs: mustprogress nounwind uwtable
define linkonce_odr hidden noundef ptr @_ZNK11PtrQueueSet9allocatorEv(ptr noundef nonnull align 8 dereferenceable(16) %0) #1 comdat align 2 {
  %2 = alloca ptr, align 8
  store ptr %0, ptr %2, align 8
  %3 = load ptr, ptr %2, align 8
  %4 = getelementptr inbounds %class.PtrQueueSet, ptr %3, i32 0, i32 1
  %5 = load ptr, ptr %4, align 8
  ret ptr %5
}

; Function Attrs: mustprogress nounwind uwtable
define hidden void @_ZN27G1RedirtyCardsLocalQueueSetC2EP22G1RedirtyCardsQueueSet(ptr noundef nonnull align 8 dereferenceable(64) %0, ptr noundef %1) unnamed_addr #1 align 2 {
  %3 = alloca ptr, align 8
  %4 = alloca ptr, align 8
  store ptr %0, ptr %3, align 8
  store ptr %1, ptr %4, align 8
  %5 = load ptr, ptr %3, align 8
  %6 = load ptr, ptr %4, align 8
  %7 = call noundef ptr @_ZNK11PtrQueueSet9allocatorEv(ptr noundef nonnull align 8 dereferenceable(16) %6)
  call void @_ZN11PtrQueueSetC2EPN10BufferNode9AllocatorE(ptr noundef nonnull align 8 dereferenceable(16) %5, ptr noundef %7)
  store ptr getelementptr inbounds inrange(-16, 8) ({ [3 x ptr] }, ptr @_ZTV27G1RedirtyCardsLocalQueueSet, i32 0, i32 0, i32 2), ptr %5, align 8
  %8 = getelementptr inbounds %class.G1RedirtyCardsLocalQueueSet, ptr %5, i32 0, i32 1
  %9 = load ptr, ptr %4, align 8
  store ptr %9, ptr %8, align 8
  %10 = getelementptr inbounds %class.G1RedirtyCardsLocalQueueSet, ptr %5, i32 0, i32 2
  call void @_ZN14BufferNodeListC1Ev(ptr noundef nonnull align 8 dereferenceable(24) %10)
  %11 = getelementptr inbounds %class.G1RedirtyCardsLocalQueueSet, ptr %5, i32 0, i32 3
  call void @_ZN27G1RedirtyCardsLocalQueueSet5QueueC1EPS_(ptr noundef nonnull align 8 dereferenceable(16) %11, ptr noundef %5)
  ret void
}