; Function Attrs: mustprogress nounwind uwtable
define hidden void @_ZN27G1RedirtyCardsLocalQueueSetC2EP22G1RedirtyCardsQueueSet(ptr noundef nonnull align 8 dereferenceable(64) %0, ptr noundef %1) unnamed_addr #0 align 2 {
  %3 = getelementptr inbounds i8, ptr %1, i64 8
  %4 = load ptr, ptr %3, align 8
  tail call void @_ZN11PtrQueueSetC2EPN10BufferNode9AllocatorE(ptr noundef nonnull align 8 dereferenceable(16) %0, ptr noundef %4) #6
  store ptr getelementptr inbounds inrange(-16, 8) (i8, ptr @_ZTV27G1RedirtyCardsLocalQueueSet, i64 16), ptr %0, align 8
  %5 = getelementptr inbounds i8, ptr %0, i64 16
  store ptr %1, ptr %5, align 8
  %6 = getelementptr inbounds i8, ptr %0, i64 24
  tail call void @_ZN14BufferNodeListC1Ev(ptr noundef nonnull align 8 dereferenceable(24) %6) #6
  %7 = getelementptr inbounds i8, ptr %0, i64 48
  tail call void @_ZN8PtrQueueC2EP11PtrQueueSet(ptr noundef nonnull align 8 dereferenceable(16) %7, ptr noundef nonnull %0) #6
  ret void
}